; Function Attrs: nounwind uwtable
define internal fastcc ptr @zend_mm_alloc_small_slow(ptr noundef %0, i32 noundef %1) unnamed_addr #0 {
  %3 = zext i32 %1 to i64
  %4 = getelementptr inbounds [30 x i32], ptr @bin_pages, i64 0, i64 %3
  %5 = load i32, ptr %4, align 4
  %6 = tail call fastcc ptr @zend_mm_alloc_pages(ptr noundef %0, i32 noundef %5)
  %7 = icmp eq ptr %6, null
  br i1 %7, label %44, label %8

8:                                                ; preds = %2
  %9 = ptrtoint ptr %6 to i64
  %10 = and i64 %9, -2097152
  %11 = inttoptr i64 %10 to ptr
  %12 = trunc i64 %9 to i32
  %13 = lshr i32 %12, 12
  %14 = and i32 %13, 511
  %15 = or i32 %1, -2147483648
  %16 = getelementptr inbounds i8, ptr %11, i64 520
  %17 = zext nneg i32 %14 to i64
  %18 = getelementptr inbounds [512 x i32], ptr %16, i64 0, i64 %17
  store i32 %15, ptr %18, align 4
  %19 = lshr i64 1072889856, %3
  %20 = and i64 %19, 1
  %.not = icmp eq i64 %20, 0
  br i1 %.not, label %.loopexit, label %.preheader

.preheader:                                       ; preds = %8
  %umax = tail call i32 @llvm.umax.i32(i32 %5, i32 2)
  %wide.trip.count = zext i32 %umax to i64
  br label %21

21:                                               ; preds = %.preheader, %21
  %indvars.iv = phi i64 [ 1, %.preheader ], [ %indvars.iv.next, %21 ]
  %22 = trunc i64 %indvars.iv to i32
  %23 = shl i32 %22, 16
  %24 = or i32 %23, %1
  %25 = or i32 %24, -1073741824
  %26 = add i32 %14, %22
  %27 = zext i32 %26 to i64
  %28 = getelementptr inbounds [512 x i32], ptr %16, i64 0, i64 %27
  store i32 %25, ptr %28, align 4
  %indvars.iv.next = add nuw nsw i64 %indvars.iv, 1
  %exitcond.not = icmp eq i64 %indvars.iv.next, %wide.trip.count
  br i1 %exitcond.not, label %.loopexit, label %21

.loopexit:                                        ; preds = %21, %8
  %29 = getelementptr inbounds [30 x i32], ptr @bin_data_size, i64 0, i64 %3
  %30 = load i32, ptr %29, align 4
  %31 = getelementptr inbounds [30 x i32], ptr @bin_elements, i64 0, i64 %3
  %32 = load i32, ptr %31, align 4
  %33 = add i32 %32, -1
  %34 = mul i32 %33, %30
  %35 = zext i32 %34 to i64
  %36 = getelementptr inbounds i8, ptr %6, i64 %35
  %37 = zext i32 %30 to i64
  %38 = getelementptr inbounds i8, ptr %6, i64 %37
  %39 = getelementptr inbounds i8, ptr %0, i64 32
  %40 = getelementptr inbounds [30 x ptr], ptr %39, i64 0, i64 %3
  store ptr %38, ptr %40, align 8
  br label %41

41:                                               ; preds = %41, %.loopexit
  %.034 = phi ptr [ %38, %.loopexit ], [ %42, %41 ]
  %42 = getelementptr inbounds i8, ptr %.034, i64 %37
  store ptr %42, ptr %.034, align 8
  %.not37 = icmp eq ptr %42, %36
  br i1 %.not37, label %43, label %41

43:                                               ; preds = %41
  store ptr null, ptr %36, align 8
  br label %44

44:                                               ; preds = %2, %43
  ret ptr %6
}